target datalayout = "e-m:e-p270:32:32-p271:32:32-p272:64:64-i64:64-i128:128-f80:128-n8:16:32:64-S128"
target triple = "x86_64-pc-linux-gnu"

%struct.nghttp2_hd_entry = type { %struct.nghttp2_hd_nv, %struct.nghttp2_nv, ptr, i32, i32 }
%struct.nghttp2_hd_nv = type { ptr, ptr, i32, i8 }
%struct.nghttp2_nv = type { ptr, ptr, i64, i64, i8 }
%struct.nghttp2_rcbuf = type { ptr, ptr, ptr, i64, i32 }
%struct.nghttp2_hd_deflater = type { %struct.nghttp2_hd_context, %struct.nghttp2_hd_map, i64, i64, i8 }
%struct.nghttp2_hd_context = type { %struct.nghttp2_hd_ringbuf, ptr, i64, i64, i32, i8 }
%struct.nghttp2_hd_ringbuf = type { ptr, i64, i64, i64 }
%struct.nghttp2_hd_map = type { [128 x ptr] }
%struct.nghttp2_hd_static_entry = type { %struct.nghttp2_rcbuf, %struct.nghttp2_rcbuf, %struct.nghttp2_nv, i32, i32 }

; Function Attrs: nounwind uwtable
define internal ptr @hd_ringbuf_get(ptr noundef %0, i64 noundef %1) #0 {
  %3 = alloca ptr, align 8
  %4 = alloca i64, align 8
  store ptr %0, ptr %3, align 8, !tbaa !9
  store i64 %1, ptr %4, align 8, !tbaa !38
  %5 = load ptr, ptr %3, align 8, !tbaa !9
  %6 = getelementptr inbounds nuw %struct.nghttp2_hd_ringbuf, ptr %5, i32 0, i32 0
  %7 = load ptr, ptr %6, align 8, !tbaa !80
  %8 = load ptr, ptr %3, align 8, !tbaa !9
  %9 = getelementptr inbounds nuw %struct.nghttp2_hd_ringbuf, ptr %8, i32 0, i32 2
  %10 = load i64, ptr %9, align 8, !tbaa !81
  %11 = load i64, ptr %4, align 8, !tbaa !38
  %12 = add i64 %10, %11
  %13 = load ptr, ptr %3, align 8, !tbaa !9
  %14 = getelementptr inbounds nuw %struct.nghttp2_hd_ringbuf, ptr %13, i32 0, i32 1
  %15 = load i64, ptr %14, align 8, !tbaa !82
  %16 = and i64 %12, %15
  %17 = getelementptr inbounds nuw ptr, ptr %7, i64 %16
  %18 = load ptr, ptr %17, align 8, !tbaa !4
  ret ptr %18
}

; Function Attrs: nounwind uwtable
define internal ptr @nghttp2_hd_table_get2(ptr noundef %0, i64 noundef %1) #0 {
  %3 = alloca ptr, align 8
  %4 = alloca ptr, align 8
  %5 = alloca i64, align 8
  store ptr %0, ptr %4, align 8, !tbaa !9
  store i64 %1, ptr %5, align 8, !tbaa !38
  %6 = load i64, ptr %5, align 8, !tbaa !38
  %7 = icmp uge i64 %6, 61
  br i1 %7, label %8, label %15

8:                                                ; preds = %2
  %9 = load ptr, ptr %4, align 8, !tbaa !9
  %10 = getelementptr inbounds nuw %struct.nghttp2_hd_context, ptr %9, i32 0, i32 0
  %11 = load i64, ptr %5, align 8, !tbaa !38
  %12 = sub i64 %11, 61
  %13 = call ptr @hd_ringbuf_get(ptr noundef %10, i64 noundef %12)
  %14 = getelementptr inbounds nuw %struct.nghttp2_hd_entry, ptr %13, i32 0, i32 1
  store ptr %14, ptr %3, align 8
  br label %19

15:                                               ; preds = %2
  %16 = load i64, ptr %5, align 8, !tbaa !38
  %17 = getelementptr inbounds nuw [61 x %struct.nghttp2_hd_static_entry], ptr @static_table, i64 0, i64 %16
  %18 = getelementptr inbounds nuw %struct.nghttp2_hd_static_entry, ptr %17, i32 0, i32 2
  store ptr %18, ptr %3, align 8
  br label %19

19:                                               ; preds = %15, %8
  %20 = load ptr, ptr %3, align 8
  ret ptr %20
}

; Function Attrs: nounwind uwtable
define internal ptr @hd_get_table_entry(ptr noundef %0, i64 noundef %1) #0 {
  %3 = alloca ptr, align 8
  %4 = alloca ptr, align 8
  %5 = alloca i64, align 8
  store ptr %0, ptr %4, align 8, !tbaa !9
  store i64 %1, ptr %5, align 8, !tbaa !38
  %6 = load i64, ptr %5, align 8, !tbaa !38
  %7 = icmp eq i64 %6, 0
  br i1 %7, label %8, label %9

8:                                                ; preds = %2
  store ptr null, ptr %3, align 8
  br label %24

9:                                                ; preds = %2
  %10 = load i64, ptr %5, align 8, !tbaa !38
  %11 = add i64 %10, -1
  store i64 %11, ptr %5, align 8, !tbaa !38
  %12 = load i64, ptr %5, align 8, !tbaa !38
  %13 = load ptr, ptr %4, align 8, !tbaa !9
  %14 = getelementptr inbounds nuw %struct.nghttp2_hd_context, ptr %13, i32 0, i32 0
  %15 = getelementptr inbounds nuw %struct.nghttp2_hd_ringbuf, ptr %14, i32 0, i32 3
  %16 = load i64, ptr %15, align 8, !tbaa !73
  %17 = add i64 %16, 61
  %18 = icmp ult i64 %12, %17
  br i1 %18, label %20, label %19

19:                                               ; preds = %9
  store ptr null, ptr %3, align 8
  br label %24

20:                                               ; preds = %9
  %21 = load ptr, ptr %4, align 8, !tbaa !9
  %22 = load i64, ptr %5, align 8, !tbaa !38
  %23 = call ptr @nghttp2_hd_table_get2(ptr noundef %21, i64 noundef %22)
  store ptr %23, ptr %3, align 8
  br label %24

24:                                               ; preds = %20, %19, %8
  %25 = load ptr, ptr %3, align 8
  ret ptr %25
}

; Function Attrs: nounwind uwtable
define dso_local ptr @nghttp2_hd_deflate_get_table_entry(ptr noundef %0, i64 noundef %1) #0 {
  %3 = alloca ptr, align 8
  %4 = alloca i64, align 8
  store ptr %0, ptr %3, align 8, !tbaa !36
  store i64 %1, ptr %4, align 8, !tbaa !38
  %5 = load ptr, ptr %3, align 8, !tbaa !36
  %6 = getelementptr inbounds nuw %struct.nghttp2_hd_deflater, ptr %5, i32 0, i32 0
  %7 = load i64, ptr %4, align 8, !tbaa !38
  %8 = call ptr @hd_get_table_entry(ptr noundef %6, i64 noundef %7)
  ret ptr %8
}