; Function Attrs: mustprogress nofree norecurse nosync nounwind willreturn memory(read, inaccessiblemem: none) uwtable
define dso_local ptr @nghttp2_hd_deflate_get_table_entry(ptr noundef readonly captures(none) %0, i64 noundef %1) local_unnamed_addr #9 {
  %3 = icmp eq i64 %1, 0
  br i1 %3, label %hd_get_table_entry.exit, label %4

4:                                                ; preds = %2
  %5 = add i64 %1, -1
  %6 = getelementptr inbounds nuw i8, ptr %0, i64 24
  %7 = load i64, ptr %6, align 8, !tbaa !71
  %8 = add i64 %7, 61
  %9 = icmp ult i64 %5, %8
  br i1 %9, label %10, label %hd_get_table_entry.exit

10:                                               ; preds = %4
  %11 = icmp ugt i64 %5, 60
  br i1 %11, label %12, label %24

12:                                               ; preds = %10
  %13 = add i64 %1, -62
  %14 = load ptr, ptr %0, align 8, !tbaa !40
  %15 = getelementptr inbounds nuw i8, ptr %0, i64 16
  %16 = load i64, ptr %15, align 8, !tbaa !63
  %17 = add i64 %13, %16
  %18 = getelementptr inbounds nuw i8, ptr %0, i64 8
  %19 = load i64, ptr %18, align 8, !tbaa !41
  %20 = and i64 %17, %19
  %21 = getelementptr inbounds nuw ptr, ptr %14, i64 %20
  %22 = load ptr, ptr %21, align 8, !tbaa !64
  %23 = getelementptr inbounds nuw i8, ptr %22, i64 24
  br label %hd_get_table_entry.exit

24:                                               ; preds = %10
  %25 = getelementptr inbounds nuw [61 x %struct.nghttp2_hd_static_entry], ptr @static_table, i64 0, i64 %5, i32 2
  br label %hd_get_table_entry.exit

hd_get_table_entry.exit:                          ; preds = %2, %4, %12, %24
  %.0.i = phi ptr [ null, %2 ], [ null, %4 ], [ %23, %12 ], [ %25, %24 ]
  ret ptr %.0.i
}